target datalayout = "e-m:e-p270:32:32-p271:32:32-p272:64:64-i64:64-i128:128-f80:128-n8:16:32:64-S128"
target triple = "x86_64-unknown-linux-gnu"

%struct.CommandLineOptions = type { i32, i32, i32, i32, i32, i32, i32, i32, i32, i32, %struct.anon, %struct.anon.0, i32, ptr }
%struct.anon = type { ptr, i32, i32 }
%struct.anon.0 = type { %struct.anon.1, ptr, i32, i32 }
%struct.anon.1 = type { i32, i32, i32, i32 }
%struct.Operation = type { i32, %union.anon }
%union.anon = type { %struct.Argument_VcField }
%struct.Argument_VcField = type { ptr, ptr, i32, ptr, i32 }

; Function Attrs: nounwind sspstrong uwtable
define internal ptr @append_shorthand_operation(ptr noundef %options, i32 noundef %type) #0 {
entry:
  %options.addr = alloca ptr, align 8
  %type.addr = alloca i32, align 4
  %op = alloca %struct.Operation, align 8
  store ptr %options, ptr %options.addr, align 8
  store i32 %type, ptr %type.addr, align 4
  call void @llvm.memset.p0.i64(ptr align 8 %op, i8 0, i64 48, i1 false)
  %0 = load i32, ptr %type.addr, align 4
  %type1 = getelementptr inbounds %struct.Operation, ptr %op, i32 0, i32 0
  store i32 %0, ptr %type1, align 8
  %1 = load ptr, ptr %options.addr, align 8
  call void @append_new_operation(ptr noundef %1, ptr noundef byval(%struct.Operation) align 8 %op)
  %2 = load ptr, ptr %options.addr, align 8
  %args = getelementptr inbounds %struct.CommandLineOptions, ptr %2, i32 0, i32 11
  %checks = getelementptr inbounds %struct.anon.0, ptr %args, i32 0, i32 0
  %num_shorthand_ops = getelementptr inbounds %struct.anon.1, ptr %checks, i32 0, i32 0
  %3 = load i32, ptr %num_shorthand_ops, align 8
  %inc = add i32 %3, 1
  store i32 %inc, ptr %num_shorthand_ops, align 8
  %4 = load ptr, ptr %options.addr, align 8
  %ops = getelementptr inbounds %struct.CommandLineOptions, ptr %4, i32 0, i32 10
  %operations = getelementptr inbounds %struct.anon, ptr %ops, i32 0, i32 0
  %5 = load ptr, ptr %operations, align 8
  %6 = load ptr, ptr %options.addr, align 8
  %ops2 = getelementptr inbounds %struct.CommandLineOptions, ptr %6, i32 0, i32 10
  %num_operations = getelementptr inbounds %struct.anon, ptr %ops2, i32 0, i32 1
  %7 = load i32, ptr %num_operations, align 8
  %sub = sub i32 %7, 1
  %idx.ext = zext i32 %sub to i64
  %add.ptr = getelementptr inbounds %struct.Operation, ptr %5, i64 %idx.ext
  ret ptr %add.ptr
}