; Function Attrs: nounwind sspstrong uwtable
define internal fastcc ptr @append_shorthand_operation(ptr noundef captures(none) %options, i32 noundef %type) unnamed_addr #1 {
entry:
  %op = alloca %struct.Operation, align 8
  call void @llvm.memset.p0.i64(ptr noundef nonnull align 8 dereferenceable(48) %op, i8 0, i64 48, i1 false)
  store i32 %type, ptr %op, align 8
  tail call fastcc void @append_new_operation(ptr noundef %options, ptr noundef nonnull byval(%struct.Operation) align 8 %op)
  %args = getelementptr inbounds nuw i8, ptr %options, i64 56
  %0 = load i32, ptr %args, align 8
  %inc = add i32 %0, 1
  store i32 %inc, ptr %args, align 8
  %ops = getelementptr inbounds nuw i8, ptr %options, i64 40
  %1 = load ptr, ptr %ops, align 8
  %num_operations = getelementptr inbounds nuw i8, ptr %options, i64 48
  %2 = load i32, ptr %num_operations, align 8
  %sub = add i32 %2, -1
  %idx.ext = zext i32 %sub to i64
  %add.ptr = getelementptr inbounds nuw %struct.Operation, ptr %1, i64 %idx.ext
  ret ptr %add.ptr
}